; Function Attrs: nounwind uwtable
define range(i32 0, 2) i32 @Inta_ManProcessRoots(ptr noundef captures(none) initializes((40, 44)) %0) local_unnamed_addr #5 {
  %2 = load ptr, ptr %0, align 8, !tbaa !23
  %3 = getelementptr inbounds nuw i8, ptr %2, i64 16
  %4 = getelementptr inbounds nuw i8, ptr %0, i64 40
  store i32 0, ptr %4, align 8, !tbaa !58
  %.149 = load ptr, ptr %3, align 8, !tbaa !24
  %.not3550 = icmp eq ptr %.149, null
  br i1 %.not3550, label %.critedge, label %.lr.ph

.lr.ph:                                           ; preds = %1
  %5 = getelementptr inbounds nuw i8, ptr %0, i64 80
  %6 = getelementptr inbounds nuw i8, ptr %0, i64 56
  %7 = getelementptr inbounds nuw i8, ptr %0, i64 72
  %8 = getelementptr inbounds nuw i8, ptr %0, i64 48
  br label %9

9:                                                ; preds = %.lr.ph, %57
  %.151 = phi ptr [ %.149, %.lr.ph ], [ %.1, %57 ]
  %10 = getelementptr inbounds nuw i8, ptr %.151, i64 28
  %11 = load i32, ptr %10, align 4
  %12 = and i32 %11, 2
  %.not36 = icmp eq i32 %12, 0
  br i1 %.not36, label %.critedge, label %13

13:                                               ; preds = %9
  %14 = and i32 %11, 134217712
  %.not39 = icmp eq i32 %14, 0
  br i1 %.not39, label %32, label %15

15:                                               ; preds = %13
  %16 = getelementptr inbounds nuw i8, ptr %.151, i64 32
  %17 = load i32, ptr %16, align 8, !tbaa !29
  %18 = load ptr, ptr %5, align 8, !tbaa !44
  %19 = xor i32 %17, 1
  %20 = sext i32 %19 to i64
  %21 = getelementptr inbounds ptr, ptr %18, i64 %20
  %22 = load ptr, ptr %21, align 8, !tbaa !24
  %23 = getelementptr inbounds nuw i8, ptr %.151, i64 8
  store ptr %22, ptr %23, align 8, !tbaa !24
  store ptr %.151, ptr %21, align 8, !tbaa !24
  %24 = getelementptr inbounds nuw i8, ptr %.151, i64 36
  %25 = load i32, ptr %24, align 4, !tbaa !29
  %26 = icmp eq i32 %17, %25
  %27 = xor i32 %25, 1
  %28 = sext i32 %27 to i64
  %29 = getelementptr inbounds ptr, ptr %18, i64 %28
  %30 = load ptr, ptr %29, align 8, !tbaa !24
  %..i44 = select i1 %26, i64 8, i64 16
  %31 = getelementptr inbounds nuw i8, ptr %.151, i64 %..i44
  store ptr %30, ptr %31, align 8, !tbaa !24
  store ptr %.151, ptr %29, align 8, !tbaa !24
  %.pre = load i32, ptr %10, align 4
  br label %32

32:                                               ; preds = %15, %13
  %33 = phi i32 [ %.pre, %15 ], [ %11, %13 ]
  %34 = and i32 %33, 134217720
  %.not40 = icmp eq i32 %34, 8
  br i1 %.not40, label %35, label %57

35:                                               ; preds = %32
  %36 = getelementptr inbounds nuw i8, ptr %.151, i64 32
  %37 = load i32, ptr %36, align 8, !tbaa !29
  %38 = ashr i32 %37, 1
  %39 = load ptr, ptr %6, align 8, !tbaa !41
  %40 = sext i32 %38 to i64
  %41 = getelementptr inbounds i32, ptr %39, i64 %40
  %42 = load i32, ptr %41, align 4, !tbaa !29
  %.not.i = icmp eq i32 %42, -1
  br i1 %.not.i, label %Inta_ManEnqueue.exit.thread, label %Inta_ManEnqueue.exit

Inta_ManEnqueue.exit.thread:                      ; preds = %35
  store i32 %37, ptr %41, align 4, !tbaa !29
  %43 = load ptr, ptr %7, align 8, !tbaa !43
  %44 = getelementptr inbounds ptr, ptr %43, i64 %40
  store ptr %.151, ptr %44, align 8, !tbaa !24
  %45 = load ptr, ptr %8, align 8, !tbaa !40
  %46 = load i32, ptr %4, align 8, !tbaa !58
  %47 = add nsw i32 %46, 1
  store i32 %47, ptr %4, align 8, !tbaa !58
  %48 = sext i32 %46 to i64
  %49 = getelementptr inbounds i32, ptr %45, i64 %48
  store i32 %37, ptr %49, align 4, !tbaa !29
  br label %57

Inta_ManEnqueue.exit:                             ; preds = %35
  %.not47 = icmp eq i32 %42, %37
  br i1 %.not47, label %57, label %50

50:                                               ; preds = %Inta_ManEnqueue.exit
  %51 = getelementptr inbounds nuw i8, ptr %2, i64 32
  %52 = load ptr, ptr %51, align 8, !tbaa !94
  %53 = tail call i32 @Inta_ManProofTraceOne(ptr noundef nonnull %0, ptr noundef nonnull %.151, ptr noundef %52)
  %54 = getelementptr inbounds nuw i8, ptr %0, i64 16
  %55 = load i32, ptr %54, align 8, !tbaa !95
  %.not42 = icmp eq i32 %55, 0
  br i1 %.not42, label %70, label %56

56:                                               ; preds = %50
  %puts43 = tail call i32 @puts(ptr nonnull dereferenceable(1) @str.4)
  br label %70

57:                                               ; preds = %Inta_ManEnqueue.exit.thread, %Inta_ManEnqueue.exit, %32
  %.1 = load ptr, ptr %.151, align 8, !tbaa !24
  %.not35 = icmp eq ptr %.1, null
  br i1 %.not35, label %.critedge, label %9, !llvm.loop !96

.critedge:                                        ; preds = %9, %57, %1
  %58 = tail call ptr @Inta_ManPropagate(ptr noundef nonnull %0, i32 noundef 0)
  %.not37 = icmp eq ptr %58, null
  br i1 %.not37, label %67, label %59

59:                                               ; preds = %.critedge
  %60 = load ptr, ptr %0, align 8, !tbaa !23
  %61 = getelementptr inbounds nuw i8, ptr %60, i64 32
  %62 = load ptr, ptr %61, align 8, !tbaa !94
  %63 = tail call i32 @Inta_ManProofTraceOne(ptr noundef nonnull %0, ptr noundef nonnull %58, ptr noundef %62)
  %64 = getelementptr inbounds nuw i8, ptr %0, i64 16
  %65 = load i32, ptr %64, align 8, !tbaa !95
  %.not38 = icmp eq i32 %65, 0
  br i1 %.not38, label %70, label %66

66:                                               ; preds = %59
  %puts = tail call i32 @puts(ptr nonnull dereferenceable(1) @str.4)
  br label %70

67:                                               ; preds = %.critedge
  %68 = load i32, ptr %4, align 8, !tbaa !58
  %69 = getelementptr inbounds nuw i8, ptr %0, i64 36
  store i32 %68, ptr %69, align 4, !tbaa !90
  br label %70

70:                                               ; preds = %59, %66, %50, %56, %67
  %.033 = phi i32 [ 1, %67 ], [ 0, %56 ], [ 0, %50 ], [ 0, %66 ], [ 0, %59 ]
  ret i32 %.033
}